; Function Attrs: nounwind uwtable
define noundef ptr @cl_hash_file_fp(ptr noundef captures(none) %0, ptr noundef %1, ptr noundef %2) local_unnamed_addr #1 {
  %4 = tail call i32 @fileno(ptr noundef %0) #12
  %5 = tail call ptr @EVP_get_digestbyname(ptr noundef %1) #12
  %.not.i = icmp eq ptr %5, null
  br i1 %.not.i, label %cl_hash_file_fd.exit, label %6

6:                                                ; preds = %3
  %7 = tail call ptr @EVP_MD_CTX_new() #12
  %.not14.i = icmp eq ptr %7, null
  br i1 %.not14.i, label %cl_hash_file_fd.exit, label %8

8:                                                ; preds = %6
  tail call void @EVP_MD_CTX_set_flags(ptr noundef nonnull %7, i32 noundef 8) #12
  %9 = tail call i32 @EVP_DigestInit_ex(ptr noundef nonnull %7, ptr noundef nonnull %5, ptr noundef null) #12
  %.not15.i = icmp eq i32 %9, 0
  br i1 %.not15.i, label %.sink.split.i, label %10

10:                                               ; preds = %8
  %11 = tail call ptr @cl_hash_file_fd_ctx(ptr noundef nonnull %7, i32 noundef %4, ptr noundef %2)
  br label %.sink.split.i

.sink.split.i:                                    ; preds = %10, %8
  %.0.ph.i = phi ptr [ %11, %10 ], [ null, %8 ]
  tail call void @EVP_MD_CTX_free(ptr noundef nonnull %7) #12
  br label %cl_hash_file_fd.exit

cl_hash_file_fd.exit:                             ; preds = %3, %6, %.sink.split.i
  %.0.i = phi ptr [ null, %3 ], [ null, %6 ], [ %.0.ph.i, %.sink.split.i ]
  ret ptr %.0.i
}